target datalayout = "e-m:e-p270:32:32-p271:32:32-p272:64:64-i64:64-i128:128-f80:128-n8:16:32:64-S128"
target triple = "x86_64-pc-linux-gnu"

%struct.cl_fmap = type { ptr, ptr, ptr, i64, i64, i64, i64, i8, i8, i8, i64, i64, i64, i64, ptr, ptr, ptr, ptr, ptr, ptr, ptr, i8, [16 x i8], i8, [20 x i8], i8, [32 x i8], ptr, ptr }

; Function Attrs: nounwind uwtable
define internal ptr @mem_gets(ptr noundef %0, ptr noundef %1, ptr noundef %2, i64 noundef %3) #0 {
  %5 = alloca ptr, align 8
  %6 = alloca ptr, align 8
  %7 = alloca ptr, align 8
  %8 = alloca ptr, align 8
  %9 = alloca i64, align 8
  %10 = alloca ptr, align 8
  %11 = alloca ptr, align 8
  %12 = alloca i64, align 8
  store ptr %0, ptr %6, align 8
  store ptr %1, ptr %7, align 8
  store ptr %2, ptr %8, align 8
  store i64 %3, ptr %9, align 8
  %13 = load ptr, ptr %6, align 8
  %14 = getelementptr inbounds %struct.cl_fmap, ptr %13, i32 0, i32 2
  %15 = load ptr, ptr %14, align 8
  %16 = load ptr, ptr %6, align 8
  %17 = getelementptr inbounds %struct.cl_fmap, ptr %16, i32 0, i32 11
  %18 = load i64, ptr %17, align 8
  %19 = getelementptr inbounds i8, ptr %15, i64 %18
  %20 = load ptr, ptr %8, align 8
  %21 = load i64, ptr %20, align 8
  %22 = getelementptr inbounds i8, ptr %19, i64 %21
  store ptr %22, ptr %10, align 8
  store ptr null, ptr %11, align 8
  %23 = load i64, ptr %9, align 8
  %24 = sub i64 %23, 1
  %25 = load ptr, ptr %6, align 8
  %26 = getelementptr inbounds %struct.cl_fmap, ptr %25, i32 0, i32 13
  %27 = load i64, ptr %26, align 8
  %28 = load ptr, ptr %8, align 8
  %29 = load i64, ptr %28, align 8
  %30 = sub i64 %27, %29
  %31 = icmp ult i64 %24, %30
  br i1 %31, label %32, label %35

32:                                               ; preds = %4
  %33 = load i64, ptr %9, align 8
  %34 = sub i64 %33, 1
  br label %42

35:                                               ; preds = %4
  %36 = load ptr, ptr %6, align 8
  %37 = getelementptr inbounds %struct.cl_fmap, ptr %36, i32 0, i32 13
  %38 = load i64, ptr %37, align 8
  %39 = load ptr, ptr %8, align 8
  %40 = load i64, ptr %39, align 8
  %41 = sub i64 %38, %40
  br label %42

42:                                               ; preds = %35, %32
  %43 = phi i64 [ %34, %32 ], [ %41, %35 ]
  store i64 %43, ptr %12, align 8
  %44 = load i64, ptr %12, align 8
  %45 = icmp ne i64 %44, 0
  br i1 %45, label %46, label %76

46:                                               ; preds = %42
  %47 = load ptr, ptr %6, align 8
  %48 = getelementptr inbounds %struct.cl_fmap, ptr %47, i32 0, i32 13
  %49 = load i64, ptr %48, align 8
  %50 = icmp ugt i64 %49, 0
  br i1 %50, label %51, label %76

51:                                               ; preds = %46
  %52 = load i64, ptr %12, align 8
  %53 = icmp ugt i64 %52, 0
  br i1 %53, label %54, label %76

54:                                               ; preds = %51
  %55 = load i64, ptr %12, align 8
  %56 = load ptr, ptr %6, align 8
  %57 = getelementptr inbounds %struct.cl_fmap, ptr %56, i32 0, i32 13
  %58 = load i64, ptr %57, align 8
  %59 = icmp ule i64 %55, %58
  br i1 %59, label %60, label %76

60:                                               ; preds = %54
  %61 = load ptr, ptr %8, align 8
  %62 = load i64, ptr %61, align 8
  %63 = load i64, ptr %12, align 8
  %64 = add i64 %62, %63
  %65 = load ptr, ptr %6, align 8
  %66 = getelementptr inbounds %struct.cl_fmap, ptr %65, i32 0, i32 13
  %67 = load i64, ptr %66, align 8
  %68 = icmp ule i64 %64, %67
  br i1 %68, label %69, label %76

69:                                               ; preds = %60
  %70 = load ptr, ptr %8, align 8
  %71 = load i64, ptr %70, align 8
  %72 = load ptr, ptr %6, align 8
  %73 = getelementptr inbounds %struct.cl_fmap, ptr %72, i32 0, i32 13
  %74 = load i64, ptr %73, align 8
  %75 = icmp ult i64 %71, %74
  br i1 %75, label %77, label %76

76:                                               ; preds = %69, %60, %54, %51, %46, %42
  store ptr null, ptr %5, align 8
  br label %120

77:                                               ; preds = %69
  %78 = load ptr, ptr %10, align 8
  %79 = load i64, ptr %12, align 8
  %80 = call ptr @memchr(ptr noundef %78, i32 noundef 10, i64 noundef %79) #11
  store ptr %80, ptr %11, align 8
  %81 = icmp ne ptr %80, null
  br i1 %81, label %82, label %107

82:                                               ; preds = %77
  %83 = load ptr, ptr %11, align 8
  %84 = getelementptr inbounds i8, ptr %83, i32 1
  store ptr %84, ptr %11, align 8
  %85 = load ptr, ptr %7, align 8
  %86 = load ptr, ptr %10, align 8
  %87 = load ptr, ptr %11, align 8
  %88 = load ptr, ptr %10, align 8
  %89 = ptrtoint ptr %87 to i64
  %90 = ptrtoint ptr %88 to i64
  %91 = sub i64 %89, %90
  call void @llvm.memcpy.p0.p0.i64(ptr align 1 %85, ptr align 1 %86, i64 %91, i1 false)
  %92 = load ptr, ptr %7, align 8
  %93 = load ptr, ptr %11, align 8
  %94 = load ptr, ptr %10, align 8
  %95 = ptrtoint ptr %93 to i64
  %96 = ptrtoint ptr %94 to i64
  %97 = sub i64 %95, %96
  %98 = getelementptr inbounds i8, ptr %92, i64 %97
  store i8 0, ptr %98, align 1
  %99 = load ptr, ptr %11, align 8
  %100 = load ptr, ptr %10, align 8
  %101 = ptrtoint ptr %99 to i64
  %102 = ptrtoint ptr %100 to i64
  %103 = sub i64 %101, %102
  %104 = load ptr, ptr %8, align 8
  %105 = load i64, ptr %104, align 8
  %106 = add i64 %105, %103
  store i64 %106, ptr %104, align 8
  br label %118

107:                                              ; preds = %77
  %108 = load ptr, ptr %7, align 8
  %109 = load ptr, ptr %10, align 8
  %110 = load i64, ptr %12, align 8
  call void @llvm.memcpy.p0.p0.i64(ptr align 1 %108, ptr align 1 %109, i64 %110, i1 false)
  %111 = load ptr, ptr %7, align 8
  %112 = load i64, ptr %12, align 8
  %113 = getelementptr inbounds i8, ptr %111, i64 %112
  store i8 0, ptr %113, align 1
  %114 = load i64, ptr %12, align 8
  %115 = load ptr, ptr %8, align 8
  %116 = load i64, ptr %115, align 8
  %117 = add i64 %116, %114
  store i64 %117, ptr %115, align 8
  br label %118

118:                                              ; preds = %107, %82
  %119 = load ptr, ptr %7, align 8
  store ptr %119, ptr %5, align 8
  br label %120

120:                                              ; preds = %118, %76
  %121 = load ptr, ptr %5, align 8
  ret ptr %121
}