; Function Attrs: mustprogress nofree nounwind willreturn memory(readwrite, inaccessiblemem: none) uwtable
define internal noundef ptr @mem_gets(ptr nocapture noundef readonly %0, ptr noundef writeonly %1, ptr nocapture noundef %2, i64 noundef %3) #12 {
  %5 = getelementptr inbounds i8, ptr %0, i64 16
  %6 = load ptr, ptr %5, align 8
  %7 = getelementptr inbounds i8, ptr %0, i64 72
  %8 = load i64, ptr %7, align 8
  %9 = getelementptr inbounds i8, ptr %6, i64 %8
  %10 = load i64, ptr %2, align 8
  %11 = getelementptr inbounds i8, ptr %9, i64 %10
  %12 = add i64 %3, -1
  %13 = getelementptr inbounds i8, ptr %0, i64 88
  %14 = load i64, ptr %13, align 8
  %15 = sub i64 %14, %10
  %. = tail call i64 @llvm.umin.i64(i64 %12, i64 %15)
  %16 = add i64 %., -1
  %or.cond.not = icmp ult i64 %16, %14
  br i1 %or.cond.not, label %17, label %29

17:                                               ; preds = %4
  %18 = add i64 %., %10
  %.not48 = icmp ule i64 %18, %14
  %19 = icmp ult i64 %10, %14
  %or.cond50 = and i1 %19, %.not48
  br i1 %or.cond50, label %20, label %29

20:                                               ; preds = %17
  %21 = tail call ptr @memchr(ptr noundef %11, i32 noundef 10, i64 noundef %.) #21
  %.not49 = icmp eq ptr %21, null
  %22 = getelementptr inbounds i8, ptr %21, i64 1
  %23 = ptrtoint ptr %22 to i64
  %24 = ptrtoint ptr %11 to i64
  %25 = sub i64 %23, %24
  %..sink52 = select i1 %.not49, i64 %., i64 %25
  tail call void @llvm.memcpy.p0.p0.i64(ptr align 1 %1, ptr align 1 %11, i64 %..sink52, i1 false)
  %26 = getelementptr inbounds i8, ptr %1, i64 %..sink52
  store i8 0, ptr %26, align 1
  %27 = load i64, ptr %2, align 8
  %28 = add i64 %27, %..sink52
  store i64 %28, ptr %2, align 8
  br label %29

29:                                               ; preds = %4, %17, %20
  %.0 = phi ptr [ %1, %20 ], [ null, %17 ], [ null, %4 ]
  ret ptr %.0
}